#include <math.h>
#include <stdio.h>
#include <stdlib.h>
#include <string.h>

void main()
{
	int i,j,n,a[301],b[301];
	scanf("%d",&n);
	for(i=0;i<n;i++)
	{
		a[i]=0;
		b[i]=0;
	}
	for(i=0;i<n;i++)
		scanf("%d",&a[i]);
	for(i=0;i<n-1;i++)
	{
		for(j=i+1;j<n;j++)
		{
			if(a[i]==a[j])
				a[j]=0;
		}
	}
	j=0;
	for(i=0;i<n;i++)
	{
		if(a[i]!=0)
		{
			b[j]=a[i];
			j++;
		}
	}
	for(i=0;i<j-1;i++)
		printf("%d,",b[i]);
	printf("%d\n",b[j-1]);
}
