; ModuleID = '53/120.c'
source_filename = "53/120.c"
target datalayout = "e-m:e-p270:32:32-p271:32:32-p272:64:64-i64:64-f80:128-n8:16:32:64-S128"
target triple = "x86_64-pc-linux-gnu"

@.str = private unnamed_addr constant [3 x i8] c"%d\00", align 1
@.str.1 = private unnamed_addr constant [4 x i8] c"%d,\00", align 1
@.str.2 = private unnamed_addr constant [4 x i8] c"%d\0A\00", align 1

; Function Attrs: noinline nounwind uwtable
define dso_local void @main() #0 {
  %1 = alloca i32, align 4
  %2 = alloca i32, align 4
  %3 = alloca i32, align 4
  %4 = alloca [301 x i32], align 16
  %5 = alloca [301 x i32], align 16
  %6 = call i32 (i8*, ...) @__isoc99_scanf(i8* getelementptr inbounds ([3 x i8], [3 x i8]* @.str, i64 0, i64 0), i32* %3)
  store i32 0, i32* %1, align 4
  br label %7

7:                                                ; preds = %18, %0
  %8 = load i32, i32* %1, align 4
  %9 = load i32, i32* %3, align 4
  %10 = icmp slt i32 %8, %9
  br i1 %10, label %11, label %21

11:                                               ; preds = %7
  %12 = load i32, i32* %1, align 4
  %13 = sext i32 %12 to i64
  %14 = getelementptr inbounds [301 x i32], [301 x i32]* %4, i64 0, i64 %13
  store i32 0, i32* %14, align 4
  %15 = load i32, i32* %1, align 4
  %16 = sext i32 %15 to i64
  %17 = getelementptr inbounds [301 x i32], [301 x i32]* %5, i64 0, i64 %16
  store i32 0, i32* %17, align 4
  br label %18

18:                                               ; preds = %11
  %19 = load i32, i32* %1, align 4
  %20 = add nsw i32 %19, 1
  store i32 %20, i32* %1, align 4
  br label %7

21:                                               ; preds = %7
  store i32 0, i32* %1, align 4
  br label %22

22:                                               ; preds = %31, %21
  %23 = load i32, i32* %1, align 4
  %24 = load i32, i32* %3, align 4
  %25 = icmp slt i32 %23, %24
  br i1 %25, label %26, label %34

26:                                               ; preds = %22
  %27 = load i32, i32* %1, align 4
  %28 = sext i32 %27 to i64
  %29 = getelementptr inbounds [301 x i32], [301 x i32]* %4, i64 0, i64 %28
  %30 = call i32 (i8*, ...) @__isoc99_scanf(i8* getelementptr inbounds ([3 x i8], [3 x i8]* @.str, i64 0, i64 0), i32* %29)
  br label %31

31:                                               ; preds = %26
  %32 = load i32, i32* %1, align 4
  %33 = add nsw i32 %32, 1
  store i32 %33, i32* %1, align 4
  br label %22

34:                                               ; preds = %22
  store i32 0, i32* %1, align 4
  br label %35

35:                                               ; preds = %66, %34
  %36 = load i32, i32* %1, align 4
  %37 = load i32, i32* %3, align 4
  %38 = sub nsw i32 %37, 1
  %39 = icmp slt i32 %36, %38
  br i1 %39, label %40, label %69

40:                                               ; preds = %35
  %41 = load i32, i32* %1, align 4
  %42 = add nsw i32 %41, 1
  store i32 %42, i32* %2, align 4
  br label %43

43:                                               ; preds = %62, %40
  %44 = load i32, i32* %2, align 4
  %45 = load i32, i32* %3, align 4
  %46 = icmp slt i32 %44, %45
  br i1 %46, label %47, label %65

47:                                               ; preds = %43
  %48 = load i32, i32* %1, align 4
  %49 = sext i32 %48 to i64
  %50 = getelementptr inbounds [301 x i32], [301 x i32]* %4, i64 0, i64 %49
  %51 = load i32, i32* %50, align 4
  %52 = load i32, i32* %2, align 4
  %53 = sext i32 %52 to i64
  %54 = getelementptr inbounds [301 x i32], [301 x i32]* %4, i64 0, i64 %53
  %55 = load i32, i32* %54, align 4
  %56 = icmp eq i32 %51, %55
  br i1 %56, label %57, label %61

57:                                               ; preds = %47
  %58 = load i32, i32* %2, align 4
  %59 = sext i32 %58 to i64
  %60 = getelementptr inbounds [301 x i32], [301 x i32]* %4, i64 0, i64 %59
  store i32 0, i32* %60, align 4
  br label %61

61:                                               ; preds = %57, %47
  br label %62

62:                                               ; preds = %61
  %63 = load i32, i32* %2, align 4
  %64 = add nsw i32 %63, 1
  store i32 %64, i32* %2, align 4
  br label %43

65:                                               ; preds = %43
  br label %66

66:                                               ; preds = %65
  %67 = load i32, i32* %1, align 4
  %68 = add nsw i32 %67, 1
  store i32 %68, i32* %1, align 4
  br label %35

69:                                               ; preds = %35
  store i32 0, i32* %2, align 4
  store i32 0, i32* %1, align 4
  br label %70

70:                                               ; preds = %91, %69
  %71 = load i32, i32* %1, align 4
  %72 = load i32, i32* %3, align 4
  %73 = icmp slt i32 %71, %72
  br i1 %73, label %74, label %94

74:                                               ; preds = %70
  %75 = load i32, i32* %1, align 4
  %76 = sext i32 %75 to i64
  %77 = getelementptr inbounds [301 x i32], [301 x i32]* %4, i64 0, i64 %76
  %78 = load i32, i32* %77, align 4
  %79 = icmp ne i32 %78, 0
  br i1 %79, label %80, label %90

80:                                               ; preds = %74
  %81 = load i32, i32* %1, align 4
  %82 = sext i32 %81 to i64
  %83 = getelementptr inbounds [301 x i32], [301 x i32]* %4, i64 0, i64 %82
  %84 = load i32, i32* %83, align 4
  %85 = load i32, i32* %2, align 4
  %86 = sext i32 %85 to i64
  %87 = getelementptr inbounds [301 x i32], [301 x i32]* %5, i64 0, i64 %86
  store i32 %84, i32* %87, align 4
  %88 = load i32, i32* %2, align 4
  %89 = add nsw i32 %88, 1
  store i32 %89, i32* %2, align 4
  br label %90

90:                                               ; preds = %80, %74
  br label %91

91:                                               ; preds = %90
  %92 = load i32, i32* %1, align 4
  %93 = add nsw i32 %92, 1
  store i32 %93, i32* %1, align 4
  br label %70

94:                                               ; preds = %70
  store i32 0, i32* %1, align 4
  br label %95

95:                                               ; preds = %106, %94
  %96 = load i32, i32* %1, align 4
  %97 = load i32, i32* %2, align 4
  %98 = sub nsw i32 %97, 1
  %99 = icmp slt i32 %96, %98
  br i1 %99, label %100, label %109

100:                                              ; preds = %95
  %101 = load i32, i32* %1, align 4
  %102 = sext i32 %101 to i64
  %103 = getelementptr inbounds [301 x i32], [301 x i32]* %5, i64 0, i64 %102
  %104 = load i32, i32* %103, align 4
  %105 = call i32 (i8*, ...) @printf(i8* getelementptr inbounds ([4 x i8], [4 x i8]* @.str.1, i64 0, i64 0), i32 %104)
  br label %106

106:                                              ; preds = %100
  %107 = load i32, i32* %1, align 4
  %108 = add nsw i32 %107, 1
  store i32 %108, i32* %1, align 4
  br label %95

109:                                              ; preds = %95
  %110 = load i32, i32* %2, align 4
  %111 = sub nsw i32 %110, 1
  %112 = sext i32 %111 to i64
  %113 = getelementptr inbounds [301 x i32], [301 x i32]* %5, i64 0, i64 %112
  %114 = load i32, i32* %113, align 4
  %115 = call i32 (i8*, ...) @printf(i8* getelementptr inbounds ([4 x i8], [4 x i8]* @.str.2, i64 0, i64 0), i32 %114)
  ret void
}

declare dso_local i32 @__isoc99_scanf(i8*, ...) #1

declare dso_local i32 @printf(i8*, ...) #1


!llvm.module.flags = !{!0}
!llvm.ident = !{!1}

!0 = !{i32 1, !"wchar_size", i32 4}
!1 = !{!"clang version 10.0.0-4ubuntu1 "}
